target datalayout = "e-m:e-p270:32:32-p271:32:32-p272:64:64-i64:64-i128:128-f80:128-n8:16:32:64-S128"
target triple = "x86_64-pc-linux-gnu"

%"struct.Yosys::RTLIL::SigSpec" = type { i32, i32, %"class.std::vector.94", %"class.std::vector.99" }
%"class.std::vector.94" = type { %"struct.std::_Vector_base.95" }
%"struct.std::_Vector_base.95" = type { %"struct.std::_Vector_base<Yosys::RTLIL::SigChunk, std::allocator<Yosys::RTLIL::SigChunk>>::_Vector_impl" }
%"struct.std::_Vector_base<Yosys::RTLIL::SigChunk, std::allocator<Yosys::RTLIL::SigChunk>>::_Vector_impl" = type { %"struct.std::_Vector_base<Yosys::RTLIL::SigChunk, std::allocator<Yosys::RTLIL::SigChunk>>::_Vector_impl_data" }
%"struct.std::_Vector_base<Yosys::RTLIL::SigChunk, std::allocator<Yosys::RTLIL::SigChunk>>::_Vector_impl_data" = type { ptr, ptr, ptr }
%"class.std::vector.99" = type { %"struct.std::_Vector_base.100" }
%"struct.std::_Vector_base.100" = type { %"struct.std::_Vector_base<Yosys::RTLIL::SigBit, std::allocator<Yosys::RTLIL::SigBit>>::_Vector_impl" }
%"struct.std::_Vector_base<Yosys::RTLIL::SigBit, std::allocator<Yosys::RTLIL::SigBit>>::_Vector_impl" = type { %"struct.std::_Vector_base<Yosys::RTLIL::SigBit, std::allocator<Yosys::RTLIL::SigBit>>::_Vector_impl_data" }
%"struct.std::_Vector_base<Yosys::RTLIL::SigBit, std::allocator<Yosys::RTLIL::SigBit>>::_Vector_impl_data" = type { ptr, ptr, ptr }
%"struct.(anonymous namespace)::FlowGraph::Node" = type <{ i32, [4 x i8], %"struct.std::pair.116", ptr, %"class.std::vector.118", ptr, ptr, i32, [4 x i8] }>
%"struct.std::pair.116" = type { %"struct.Yosys::RTLIL::SigSpec", %"struct.Yosys::RTLIL::SigSpec" }
%"class.std::vector.118" = type { %"struct.std::_Vector_base.119" }
%"struct.std::_Vector_base.119" = type { %"struct.std::_Vector_base<const Yosys::RTLIL::Cell *, std::allocator<const Yosys::RTLIL::Cell *>>::_Vector_impl" }
%"struct.std::_Vector_base<const Yosys::RTLIL::Cell *, std::allocator<const Yosys::RTLIL::Cell *>>::_Vector_impl" = type { %"struct.std::_Vector_base<const Yosys::RTLIL::Cell *, std::allocator<const Yosys::RTLIL::Cell *>>::_Vector_impl_data" }
%"struct.std::_Vector_base<const Yosys::RTLIL::Cell *, std::allocator<const Yosys::RTLIL::Cell *>>::_Vector_impl_data" = type { ptr, ptr, ptr }

; Function Attrs: mustprogress nounwind uwtable
define linkonce_odr void @_ZNSt15__new_allocatorIPKN5Yosys5RTLIL4CellEE10deallocateEPS4_m(ptr noundef nonnull align 1 dereferenceable(1) %0, ptr noundef %1, i64 noundef %2) #6 comdat align 2 {
  %4 = alloca ptr, align 8
  %5 = alloca ptr, align 8
  %6 = alloca i64, align 8
  store ptr %0, ptr %4, align 8, !tbaa !510
  store ptr %1, ptr %5, align 8, !tbaa !504
  store i64 %2, ptr %6, align 8, !tbaa !34
  %7 = load ptr, ptr %5, align 8, !tbaa !504
  %8 = load i64, ptr %6, align 8, !tbaa !34
  %9 = mul i64 %8, 8
  call void @_ZdlPvm(ptr noundef %7, i64 noundef %9) #24
  ret void
}

; Function Attrs: mustprogress uwtable
define linkonce_odr void @_ZNSt16allocator_traitsISaIPKN5Yosys5RTLIL4CellEEE10deallocateERS5_PS4_m(ptr noundef nonnull align 1 dereferenceable(1) %0, ptr noundef %1, i64 noundef %2) #4 comdat align 2 {
  %4 = alloca ptr, align 8
  %5 = alloca ptr, align 8
  %6 = alloca i64, align 8
  store ptr %0, ptr %4, align 8, !tbaa !505
  store ptr %1, ptr %5, align 8, !tbaa !504
  store i64 %2, ptr %6, align 8, !tbaa !34
  %7 = load ptr, ptr %4, align 8, !tbaa !505
  %8 = load ptr, ptr %5, align 8, !tbaa !504
  %9 = load i64, ptr %6, align 8, !tbaa !34
  call void @_ZNSt15__new_allocatorIPKN5Yosys5RTLIL4CellEE10deallocateEPS4_m(ptr noundef nonnull align 1 dereferenceable(1) %7, ptr noundef %8, i64 noundef %9)
  ret void
}

; Function Attrs: mustprogress nounwind uwtable
define linkonce_odr void @_ZNSt12_Destroy_auxILb1EE9__destroyIPPKN5Yosys5RTLIL4CellEEEvT_S8_(ptr noundef %0, ptr noundef %1) #6 comdat align 2 {
  %3 = alloca ptr, align 8
  %4 = alloca ptr, align 8
  store ptr %0, ptr %3, align 8, !tbaa !504
  store ptr %1, ptr %4, align 8, !tbaa !504
  ret void
}

; Function Attrs: mustprogress nounwind uwtable
define linkonce_odr void @_ZNSt15__new_allocatorIPKN5Yosys5RTLIL4CellEED2Ev(ptr noundef nonnull align 1 dereferenceable(1) %0) unnamed_addr #6 comdat align 2 {
  %2 = alloca ptr, align 8
  store ptr %0, ptr %2, align 8, !tbaa !510
  ret void
}

; Function Attrs: mustprogress uwtable
define linkonce_odr void @_ZNSt12_Vector_baseIPKN5Yosys5RTLIL4CellESaIS4_EE13_M_deallocateEPS4_m(ptr noundef nonnull align 8 dereferenceable(24) %0, ptr noundef %1, i64 noundef %2) #4 comdat align 2 {
  %4 = alloca ptr, align 8
  %5 = alloca ptr, align 8
  %6 = alloca i64, align 8
  store ptr %0, ptr %4, align 8, !tbaa !507
  store ptr %1, ptr %5, align 8, !tbaa !504
  store i64 %2, ptr %6, align 8, !tbaa !34
  %7 = load ptr, ptr %4, align 8
  %8 = load ptr, ptr %5, align 8, !tbaa !504
  %9 = icmp ne ptr %8, null
  br i1 %9, label %10, label %14

10:                                               ; preds = %3
  %11 = getelementptr inbounds nuw %"struct.std::_Vector_base.119", ptr %7, i32 0, i32 0
  %12 = load ptr, ptr %5, align 8, !tbaa !504
  %13 = load i64, ptr %6, align 8, !tbaa !34
  call void @_ZNSt16allocator_traitsISaIPKN5Yosys5RTLIL4CellEEE10deallocateERS5_PS4_m(ptr noundef nonnull align 1 dereferenceable(1) %11, ptr noundef %12, i64 noundef %13)
  br label %14

14:                                               ; preds = %10, %3
  ret void
}

; Function Attrs: inlinehint mustprogress uwtable
define linkonce_odr void @_ZSt8_DestroyIPPKN5Yosys5RTLIL4CellEEvT_S6_(ptr noundef %0, ptr noundef %1) #9 comdat {
  %3 = alloca ptr, align 8
  %4 = alloca ptr, align 8
  store ptr %0, ptr %3, align 8, !tbaa !504
  store ptr %1, ptr %4, align 8, !tbaa !504
  %5 = load ptr, ptr %3, align 8, !tbaa !504
  %6 = load ptr, ptr %4, align 8, !tbaa !504
  call void @_ZNSt12_Destroy_auxILb1EE9__destroyIPPKN5Yosys5RTLIL4CellEEEvT_S8_(ptr noundef %5, ptr noundef %6)
  ret void
}

; Function Attrs: noinline noreturn nounwind uwtable
define linkonce_odr hidden void @__clang_call_terminate(ptr noundef %0) #11 comdat {
  %2 = call ptr @__cxa_begin_catch(ptr %0) #3
  call void @_ZSt9terminatev() #23
  unreachable
}

; Function Attrs: mustprogress nounwind uwtable
define linkonce_odr void @_ZNSt12_Vector_baseIPKN5Yosys5RTLIL4CellESaIS4_EED2Ev(ptr noundef nonnull align 8 dereferenceable(24) %0) unnamed_addr #6 comdat align 2 personality ptr @__gxx_personality_v0 {
  %2 = alloca ptr, align 8
  store ptr %0, ptr %2, align 8, !tbaa !507
  %3 = load ptr, ptr %2, align 8
  %4 = getelementptr inbounds nuw %"struct.std::_Vector_base.119", ptr %3, i32 0, i32 0
  %5 = getelementptr inbounds nuw %"struct.std::_Vector_base<const Yosys::RTLIL::Cell *, std::allocator<const Yosys::RTLIL::Cell *>>::_Vector_impl_data", ptr %4, i32 0, i32 0
  %6 = load ptr, ptr %5, align 8, !tbaa !498
  %7 = getelementptr inbounds nuw %"struct.std::_Vector_base.119", ptr %3, i32 0, i32 0
  %8 = getelementptr inbounds nuw %"struct.std::_Vector_base<const Yosys::RTLIL::Cell *, std::allocator<const Yosys::RTLIL::Cell *>>::_Vector_impl_data", ptr %7, i32 0, i32 2
  %9 = load ptr, ptr %8, align 8, !tbaa !509
  %10 = getelementptr inbounds nuw %"struct.std::_Vector_base.119", ptr %3, i32 0, i32 0
  %11 = getelementptr inbounds nuw %"struct.std::_Vector_base<const Yosys::RTLIL::Cell *, std::allocator<const Yosys::RTLIL::Cell *>>::_Vector_impl_data", ptr %10, i32 0, i32 0
  %12 = load ptr, ptr %11, align 8, !tbaa !498
  %13 = ptrtoint ptr %9 to i64
  %14 = ptrtoint ptr %12 to i64
  %15 = sub i64 %13, %14
  %16 = sdiv exact i64 %15, 8
  invoke void @_ZNSt12_Vector_baseIPKN5Yosys5RTLIL4CellESaIS4_EE13_M_deallocateEPS4_m(ptr noundef nonnull align 8 dereferenceable(24) %3, ptr noundef %6, i64 noundef %16)
          to label %17 unwind label %19

17:                                               ; preds = %1
  %18 = getelementptr inbounds nuw %"struct.std::_Vector_base.119", ptr %3, i32 0, i32 0
  call void @_ZNSt15__new_allocatorIPKN5Yosys5RTLIL4CellEED2Ev(ptr noundef nonnull align 8 dereferenceable(24) %18) #3
  ret void

19:                                               ; preds = %1
  %20 = landingpad { ptr, i32 }
          catch ptr null
  %21 = extractvalue { ptr, i32 } %20, 0
  call void @__clang_call_terminate(ptr %21) #23
  unreachable
}

; Function Attrs: inlinehint mustprogress uwtable
define linkonce_odr void @_ZSt8_DestroyIPPKN5Yosys5RTLIL4CellES4_EvT_S6_RSaIT0_E(ptr noundef %0, ptr noundef %1, ptr noundef nonnull align 1 dereferenceable(1) %2) #9 comdat {
  %4 = alloca ptr, align 8
  %5 = alloca ptr, align 8
  %6 = alloca ptr, align 8
  store ptr %0, ptr %4, align 8, !tbaa !504
  store ptr %1, ptr %5, align 8, !tbaa !504
  store ptr %2, ptr %6, align 8, !tbaa !505
  %7 = load ptr, ptr %4, align 8, !tbaa !504
  %8 = load ptr, ptr %5, align 8, !tbaa !504
  call void @_ZSt8_DestroyIPPKN5Yosys5RTLIL4CellEEvT_S6_(ptr noundef %7, ptr noundef %8)
  ret void
}

; Function Attrs: mustprogress nounwind uwtable
define linkonce_odr noundef nonnull align 1 dereferenceable(1) ptr @_ZNSt12_Vector_baseIPKN5Yosys5RTLIL4CellESaIS4_EE19_M_get_Tp_allocatorEv(ptr noundef nonnull align 8 dereferenceable(24) %0) #6 comdat align 2 {
  %2 = alloca ptr, align 8
  store ptr %0, ptr %2, align 8, !tbaa !507
  %3 = load ptr, ptr %2, align 8
  %4 = getelementptr inbounds nuw %"struct.std::_Vector_base.119", ptr %3, i32 0, i32 0
  ret ptr %4
}

; Function Attrs: mustprogress nounwind uwtable
define linkonce_odr void @_ZNSt6vectorIPKN5Yosys5RTLIL4CellESaIS4_EED2Ev(ptr noundef nonnull align 8 dereferenceable(24) %0) unnamed_addr #6 comdat align 2 personality ptr @__gxx_personality_v0 {
  %2 = alloca ptr, align 8
  store ptr %0, ptr %2, align 8, !tbaa !496
  %3 = load ptr, ptr %2, align 8
  %4 = getelementptr inbounds nuw %"struct.std::_Vector_base.119", ptr %3, i32 0, i32 0
  %5 = getelementptr inbounds nuw %"struct.std::_Vector_base<const Yosys::RTLIL::Cell *, std::allocator<const Yosys::RTLIL::Cell *>>::_Vector_impl_data", ptr %4, i32 0, i32 0
  %6 = load ptr, ptr %5, align 8, !tbaa !498
  %7 = getelementptr inbounds nuw %"struct.std::_Vector_base.119", ptr %3, i32 0, i32 0
  %8 = getelementptr inbounds nuw %"struct.std::_Vector_base<const Yosys::RTLIL::Cell *, std::allocator<const Yosys::RTLIL::Cell *>>::_Vector_impl_data", ptr %7, i32 0, i32 1
  %9 = load ptr, ptr %8, align 8, !tbaa !501
  %10 = call noundef nonnull align 1 dereferenceable(1) ptr @_ZNSt12_Vector_baseIPKN5Yosys5RTLIL4CellESaIS4_EE19_M_get_Tp_allocatorEv(ptr noundef nonnull align 8 dereferenceable(24) %3) #3
  invoke void @_ZSt8_DestroyIPPKN5Yosys5RTLIL4CellES4_EvT_S6_RSaIT0_E(ptr noundef %6, ptr noundef %9, ptr noundef nonnull align 1 dereferenceable(1) %10)
          to label %11 unwind label %12

11:                                               ; preds = %1
  call void @_ZNSt12_Vector_baseIPKN5Yosys5RTLIL4CellESaIS4_EED2Ev(ptr noundef nonnull align 8 dereferenceable(24) %3) #3
  ret void

12:                                               ; preds = %1
  %13 = landingpad { ptr, i32 }
          catch ptr null
  %14 = extractvalue { ptr, i32 } %13, 0
  call void @__clang_call_terminate(ptr %14) #23
  unreachable
}

; Function Attrs: inlinehint mustprogress nounwind uwtable
define internal void @_ZN12_GLOBAL__N_19FlowGraph4NodeD2Ev(ptr noundef nonnull align 8 dereferenceable(172) %0) unnamed_addr #7 align 2 {
  %2 = alloca ptr, align 8
  store ptr %0, ptr %2, align 8, !tbaa !489
  %3 = load ptr, ptr %2, align 8
  %4 = getelementptr inbounds nuw %"struct.(anonymous namespace)::FlowGraph::Node", ptr %3, i32 0, i32 4
  call void @_ZNSt6vectorIPKN5Yosys5RTLIL4CellESaIS4_EED2Ev(ptr noundef nonnull align 8 dereferenceable(24) %4) #3
  %5 = getelementptr inbounds nuw %"struct.(anonymous namespace)::FlowGraph::Node", ptr %3, i32 0, i32 2
  call void @_ZNSt4pairIN5Yosys5RTLIL7SigSpecES2_ED2Ev(ptr noundef nonnull align 8 dereferenceable(112) %5) #3
  ret void
}

; Function Attrs: mustprogress nounwind uwtable
define internal void @_ZNSt15__new_allocatorIN12_GLOBAL__N_19FlowGraph4NodeEE7destroyIS2_EEvPT_(ptr noundef nonnull align 1 dereferenceable(1) %0, ptr noundef %1) #6 align 2 {
  %3 = alloca ptr, align 8
  %4 = alloca ptr, align 8
  store ptr %0, ptr %3, align 8, !tbaa !512
  store ptr %1, ptr %4, align 8, !tbaa !489
  %5 = load ptr, ptr %4, align 8, !tbaa !489
  call void @_ZN12_GLOBAL__N_19FlowGraph4NodeD2Ev(ptr noundef nonnull align 8 dereferenceable(172) %5) #3
  ret void
}

; Function Attrs: mustprogress nounwind uwtable
define internal void @_ZNSt16allocator_traitsISaIN12_GLOBAL__N_19FlowGraph4NodeEEE7destroyIS2_EEvRS3_PT_(ptr noundef nonnull align 1 dereferenceable(1) %0, ptr noundef %1) #6 align 2 {
  %3 = alloca ptr, align 8
  %4 = alloca ptr, align 8
  store ptr %0, ptr %3, align 8, !tbaa !490
  store ptr %1, ptr %4, align 8, !tbaa !489
  %5 = load ptr, ptr %3, align 8, !tbaa !490
  %6 = load ptr, ptr %4, align 8, !tbaa !489
  call void @_ZNSt15__new_allocatorIN12_GLOBAL__N_19FlowGraph4NodeEE7destroyIS2_EEvPT_(ptr noundef nonnull align 1 dereferenceable(1) %5, ptr noundef %6) #3
  ret void
}