; Function Attrs: mustprogress nounwind uwtable
define internal fastcc void @_ZNSt16allocator_traitsISaIN12_GLOBAL__N_19FlowGraph4NodeEEE7destroyIS2_EEvRS3_PT_(ptr noundef %0) unnamed_addr #6 align 2 personality ptr @__gxx_personality_v0 {
  %2 = getelementptr inbounds nuw i8, ptr %0, i64 128
  %3 = load ptr, ptr %2, align 8, !tbaa !401
  %.not.i.i.i.i.i = icmp eq ptr %3, null
  br i1 %.not.i.i.i.i.i, label %_ZNSt15__new_allocatorIN12_GLOBAL__N_19FlowGraph4NodeEE7destroyIS2_EEvPT_.exit, label %4

4:                                                ; preds = %1
  %5 = getelementptr inbounds nuw i8, ptr %0, i64 144
  %6 = load ptr, ptr %5, align 8, !tbaa !403
  %7 = ptrtoint ptr %6 to i64
  %8 = ptrtoint ptr %3 to i64
  %9 = sub i64 %7, %8
  tail call void @_ZdlPvm(ptr noundef nonnull %3, i64 noundef %9) #35
  br label %_ZNSt15__new_allocatorIN12_GLOBAL__N_19FlowGraph4NodeEE7destroyIS2_EEvPT_.exit

_ZNSt15__new_allocatorIN12_GLOBAL__N_19FlowGraph4NodeEE7destroyIS2_EEvPT_.exit: ; preds = %1, %4
  %10 = getelementptr inbounds nuw i8, ptr %0, i64 8
  tail call void @_ZNSt4pairIN5Yosys5RTLIL7SigSpecES2_ED2Ev(ptr noundef nonnull align 8 dereferenceable(112) %10) #34
  ret void
}